; Function Attrs: mustprogress uwtable
define void @_ZN4toku9txnid_set6removeEm(ptr noundef nonnull align 8 dereferenceable(24) %0, i64 noundef %1) local_unnamed_addr #2 align 2 {
  %3 = alloca i64, align 8
  %4 = alloca i32, align 4
  store i64 %1, ptr %3, align 8, !tbaa !4
  call void @llvm.lifetime.start.p0(i64 4, ptr nonnull %4) #9
  %5 = load i8, ptr %0, align 8, !tbaa !8, !range !12, !noundef !13
  %6 = trunc nuw i8 %5 to i1
  %7 = getelementptr inbounds nuw i8, ptr %0, i64 8
  br i1 %6, label %8, label %31

8:                                                ; preds = %2
  %9 = load i32, ptr %7, align 8, !tbaa !14
  %10 = getelementptr inbounds nuw i8, ptr %0, i64 12
  %11 = load i32, ptr %10, align 4, !tbaa !14
  %.not38.i.i = icmp eq i32 %11, 0
  br i1 %.not38.i.i, label %.thread.i.i, label %.lr.ph.i.i

.lr.ph.i.i:                                       ; preds = %8
  %12 = add i32 %11, %9
  %13 = getelementptr inbounds nuw i8, ptr %0, i64 16
  %14 = load ptr, ptr %13, align 8, !tbaa !14
  br label %15

15:                                               ; preds = %26, %.lr.ph.i.i
  %.02442.i.i = phi i32 [ %9, %.lr.ph.i.i ], [ %.1.i.i, %26 ]
  %.02541.i.i = phi i32 [ -1, %.lr.ph.i.i ], [ %.126.i.i, %26 ]
  %.02740.i.i = phi i32 [ -1, %.lr.ph.i.i ], [ %.128.i.i, %26 ]
  %.02939.i.i = phi i32 [ %12, %.lr.ph.i.i ], [ %.130.i.i, %26 ]
  %16 = add i32 %.02939.i.i, %.02442.i.i
  %17 = lshr i32 %16, 1
  %18 = zext nneg i32 %17 to i64
  %19 = getelementptr inbounds nuw i64, ptr %14, i64 %18
  %20 = load i64, ptr %19, align 8, !tbaa !4
  %21 = icmp ult i64 %20, %1
  br i1 %21, label %22, label %24

22:                                               ; preds = %15
  %23 = add nuw i32 %17, 1
  br label %26

24:                                               ; preds = %15
  %.not37.i.i = icmp eq i64 %20, %1
  %.027..i.i = select i1 %.not37.i.i, i32 %.02740.i.i, i32 %17
  %..025.i.i = select i1 %.not37.i.i, i32 %17, i32 %.02541.i.i
  %25 = freeze i32 %.027..i.i
  br label %26

26:                                               ; preds = %24, %22
  %.130.i.i = phi i32 [ %.02939.i.i, %22 ], [ %17, %24 ]
  %.128.i.i = phi i32 [ %.02740.i.i, %22 ], [ %25, %24 ]
  %.126.i.i = phi i32 [ %.02541.i.i, %22 ], [ %..025.i.i, %24 ]
  %.1.i.i = phi i32 [ %23, %22 ], [ %.02442.i.i, %24 ]
  %.not.i.i = icmp eq i32 %.1.i.i, %.130.i.i
  br i1 %.not.i.i, label %._crit_edge.i.i, label %15, !llvm.loop !18

._crit_edge.i.i:                                  ; preds = %26
  %.not33.i.i = icmp eq i32 %.126.i.i, -1
  br i1 %.not33.i.i, label %29, label %27

27:                                               ; preds = %._crit_edge.i.i
  %28 = sub i32 %.126.i.i, %9
  br label %_ZNK4toku3omtImmLb0EE24find_internal_zero_arrayImTnPFiRKmRKT_EXadL_ZNS_13find_by_txnidES4_S4_EEEEiS7_PmPj.exit.i

29:                                               ; preds = %._crit_edge.i.i
  %.not34.i.i = icmp eq i32 %.128.i.i, -1
  %30 = sub i32 %.128.i.i, %9
  br i1 %.not34.i.i, label %.thread.i.i, label %_ZNK4toku3omtImmLb0EE24find_internal_zero_arrayImTnPFiRKmRKT_EXadL_ZNS_13find_by_txnidES4_S4_EEEEiS7_PmPj.exit.i

.thread.i.i:                                      ; preds = %29, %8
  br label %_ZNK4toku3omtImmLb0EE24find_internal_zero_arrayImTnPFiRKmRKT_EXadL_ZNS_13find_by_txnidES4_S4_EEEEiS7_PmPj.exit.i

_ZNK4toku3omtImmLb0EE24find_internal_zero_arrayImTnPFiRKmRKT_EXadL_ZNS_13find_by_txnidES4_S4_EEEEiS7_PmPj.exit.i: ; preds = %.thread.i.i, %29, %27
  %storemerge35.i.i = phi i32 [ %28, %27 ], [ %11, %.thread.i.i ], [ %30, %29 ]
  %.0.i.i = phi i32 [ 0, %27 ], [ -30989, %.thread.i.i ], [ -30989, %29 ]
  store i32 %storemerge35.i.i, ptr %4, align 4, !tbaa !20
  br label %_ZNK4toku3omtImmLb0EE9find_zeroImTnPFiRKmRKT_EXadL_ZNS_13find_by_txnidES4_S4_EEEEiS7_PmPj.exit

31:                                               ; preds = %2
  %32 = call noundef i32 @_ZNK4toku3omtImmLb0EE18find_internal_zeroImTnPFiRKmRKT_EXadL_ZNS_13find_by_txnidES4_S4_EEEEiRKNS_12omt_internal17subtree_templatedILb0EEES7_PmPj(ptr noundef nonnull align 8 dereferenceable(24) %0, ptr noundef nonnull align 4 dereferenceable(4) %7, ptr noundef nonnull align 8 dereferenceable(8) %3, ptr noundef null, ptr noundef nonnull %4)
  br label %_ZNK4toku3omtImmLb0EE9find_zeroImTnPFiRKmRKT_EXadL_ZNS_13find_by_txnidES4_S4_EEEEiS7_PmPj.exit

_ZNK4toku3omtImmLb0EE9find_zeroImTnPFiRKmRKT_EXadL_ZNS_13find_by_txnidES4_S4_EEEEiS7_PmPj.exit: ; preds = %_ZNK4toku3omtImmLb0EE24find_internal_zero_arrayImTnPFiRKmRKT_EXadL_ZNS_13find_by_txnidES4_S4_EEEEiS7_PmPj.exit.i, %31
  %.0.i = phi i32 [ %.0.i.i, %_ZNK4toku3omtImmLb0EE24find_internal_zero_arrayImTnPFiRKmRKT_EXadL_ZNS_13find_by_txnidES4_S4_EEEEiS7_PmPj.exit.i ], [ %32, %31 ]
  %33 = icmp eq i32 %.0.i, 0
  br i1 %33, label %34, label %37

34:                                               ; preds = %_ZNK4toku3omtImmLb0EE9find_zeroImTnPFiRKmRKT_EXadL_ZNS_13find_by_txnidES4_S4_EEEEiS7_PmPj.exit
  %35 = load i32, ptr %4, align 4, !tbaa !20
  %36 = call noundef i32 @_ZN4toku3omtImmLb0EE9delete_atEj(ptr noundef nonnull align 8 dereferenceable(24) %0, i32 noundef %35)
  br label %37

37:                                               ; preds = %34, %_ZNK4toku3omtImmLb0EE9find_zeroImTnPFiRKmRKT_EXadL_ZNS_13find_by_txnidES4_S4_EEEEiS7_PmPj.exit
  call void @llvm.lifetime.end.p0(i64 4, ptr nonnull %4) #9
  ret void
}